target datalayout = "e-m:e-p270:32:32-p271:32:32-p272:64:64-i64:64-i128:128-f80:128-n8:16:32:64-S128"
target triple = "x86_64-pc-linux-gnu"

%struct.pg_uuid_t = type { [16 x i8] }

@.str = private unnamed_addr constant [33 x i8] c"could not generate random values\00", align 1
@.str.1 = private unnamed_addr constant [7 x i8] c"uuid.c\00", align 1
@__func__.generate_uuidv7 = private unnamed_addr constant [16 x i8] c"generate_uuidv7\00", align 1

; Function Attrs: inlinehint nounwind uwtable
define internal void @uuid_set_version(ptr noundef %0, i8 noundef zeroext %1) #2 {
  %3 = alloca ptr, align 8
  %4 = alloca i8, align 1
  store ptr %0, ptr %3, align 8
  store i8 %1, ptr %4, align 1
  %5 = load ptr, ptr %3, align 8
  %6 = getelementptr inbounds nuw %struct.pg_uuid_t, ptr %5, i32 0, i32 0
  %7 = getelementptr inbounds [16 x i8], ptr %6, i64 0, i64 6
  %8 = load i8, ptr %7, align 1
  %9 = zext i8 %8 to i32
  %10 = and i32 %9, 15
  %11 = load i8, ptr %4, align 1
  %12 = zext i8 %11 to i32
  %13 = shl i32 %12, 4
  %14 = or i32 %10, %13
  %15 = trunc i32 %14 to i8
  %16 = load ptr, ptr %3, align 8
  %17 = getelementptr inbounds nuw %struct.pg_uuid_t, ptr %16, i32 0, i32 0
  %18 = getelementptr inbounds [16 x i8], ptr %17, i64 0, i64 6
  store i8 %15, ptr %18, align 1
  %19 = load ptr, ptr %3, align 8
  %20 = getelementptr inbounds nuw %struct.pg_uuid_t, ptr %19, i32 0, i32 0
  %21 = getelementptr inbounds [16 x i8], ptr %20, i64 0, i64 8
  %22 = load i8, ptr %21, align 1
  %23 = zext i8 %22 to i32
  %24 = and i32 %23, 63
  %25 = or i32 %24, 128
  %26 = trunc i32 %25 to i8
  %27 = load ptr, ptr %3, align 8
  %28 = getelementptr inbounds nuw %struct.pg_uuid_t, ptr %27, i32 0, i32 0
  %29 = getelementptr inbounds [16 x i8], ptr %28, i64 0, i64 8
  store i8 %26, ptr %29, align 1
  ret void
}

; Function Attrs: nounwind uwtable
define internal ptr @generate_uuidv7(i64 noundef %0) #0 {
  %2 = alloca i64, align 8
  %3 = alloca ptr, align 8
  %4 = alloca i64, align 8
  %5 = alloca i32, align 4
  store i64 %0, ptr %2, align 8
  call void @llvm.lifetime.start.p0(i64 8, ptr %3) #10
  %6 = call ptr @palloc(i64 noundef 16)
  store ptr %6, ptr %3, align 8
  call void @llvm.lifetime.start.p0(i64 8, ptr %4) #10
  call void @llvm.lifetime.start.p0(i64 4, ptr %5) #10
  %7 = load i64, ptr %2, align 8
  %8 = sdiv i64 %7, 1000000
  store i64 %8, ptr %4, align 8
  %9 = load i64, ptr %4, align 8
  %10 = ashr i64 %9, 40
  %11 = trunc i64 %10 to i8
  %12 = load ptr, ptr %3, align 8
  %13 = getelementptr inbounds nuw %struct.pg_uuid_t, ptr %12, i32 0, i32 0
  %14 = getelementptr inbounds [16 x i8], ptr %13, i64 0, i64 0
  store i8 %11, ptr %14, align 1
  %15 = load i64, ptr %4, align 8
  %16 = ashr i64 %15, 32
  %17 = trunc i64 %16 to i8
  %18 = load ptr, ptr %3, align 8
  %19 = getelementptr inbounds nuw %struct.pg_uuid_t, ptr %18, i32 0, i32 0
  %20 = getelementptr inbounds [16 x i8], ptr %19, i64 0, i64 1
  store i8 %17, ptr %20, align 1
  %21 = load i64, ptr %4, align 8
  %22 = ashr i64 %21, 24
  %23 = trunc i64 %22 to i8
  %24 = load ptr, ptr %3, align 8
  %25 = getelementptr inbounds nuw %struct.pg_uuid_t, ptr %24, i32 0, i32 0
  %26 = getelementptr inbounds [16 x i8], ptr %25, i64 0, i64 2
  store i8 %23, ptr %26, align 1
  %27 = load i64, ptr %4, align 8
  %28 = ashr i64 %27, 16
  %29 = trunc i64 %28 to i8
  %30 = load ptr, ptr %3, align 8
  %31 = getelementptr inbounds nuw %struct.pg_uuid_t, ptr %30, i32 0, i32 0
  %32 = getelementptr inbounds [16 x i8], ptr %31, i64 0, i64 3
  store i8 %29, ptr %32, align 1
  %33 = load i64, ptr %4, align 8
  %34 = ashr i64 %33, 8
  %35 = trunc i64 %34 to i8
  %36 = load ptr, ptr %3, align 8
  %37 = getelementptr inbounds nuw %struct.pg_uuid_t, ptr %36, i32 0, i32 0
  %38 = getelementptr inbounds [16 x i8], ptr %37, i64 0, i64 4
  store i8 %35, ptr %38, align 1
  %39 = load i64, ptr %4, align 8
  %40 = trunc i64 %39 to i8
  %41 = load ptr, ptr %3, align 8
  %42 = getelementptr inbounds nuw %struct.pg_uuid_t, ptr %41, i32 0, i32 0
  %43 = getelementptr inbounds [16 x i8], ptr %42, i64 0, i64 5
  store i8 %40, ptr %43, align 1
  %44 = load i64, ptr %2, align 8
  %45 = srem i64 %44, 1000000
  %46 = mul i64 %45, 4096
  %47 = sdiv i64 %46, 1000000
  %48 = trunc i64 %47 to i32
  store i32 %48, ptr %5, align 4
  %49 = load i32, ptr %5, align 4
  %50 = ashr i32 %49, 8
  %51 = trunc i32 %50 to i8
  %52 = load ptr, ptr %3, align 8
  %53 = getelementptr inbounds nuw %struct.pg_uuid_t, ptr %52, i32 0, i32 0
  %54 = getelementptr inbounds [16 x i8], ptr %53, i64 0, i64 6
  store i8 %51, ptr %54, align 1
  %55 = load i32, ptr %5, align 4
  %56 = trunc i32 %55 to i8
  %57 = load ptr, ptr %3, align 8
  %58 = getelementptr inbounds nuw %struct.pg_uuid_t, ptr %57, i32 0, i32 0
  %59 = getelementptr inbounds [16 x i8], ptr %58, i64 0, i64 7
  store i8 %56, ptr %59, align 1
  %60 = load ptr, ptr %3, align 8
  %61 = getelementptr inbounds nuw %struct.pg_uuid_t, ptr %60, i32 0, i32 0
  %62 = getelementptr inbounds [16 x i8], ptr %61, i64 0, i64 8
  %63 = call zeroext i1 @pg_strong_random(ptr noundef %62, i64 noundef 8)
  br i1 %63, label %76, label %64

64:                                               ; preds = %1
  br label %65

65:                                               ; preds = %64
  br i1 true, label %66, label %68

66:                                               ; preds = %65
  %67 = call zeroext i1 @errstart_cold(i32 noundef 21, ptr noundef null) #13
  br i1 %67, label %70, label %73

68:                                               ; preds = %65
  %69 = call zeroext i1 @errstart(i32 noundef 21, ptr noundef null)
  br i1 %69, label %70, label %73

70:                                               ; preds = %68, %66
  %71 = call i32 @errcode(i32 noundef 2600)
  %72 = call i32 (ptr, ...) @errmsg(ptr noundef @.str)
  call void @errfinish(ptr noundef @.str.1, i32 noundef 560, ptr noundef @__func__.generate_uuidv7)
  br label %73

73:                                               ; preds = %70, %68, %66
  unreachable

74:                                               ; No predecessors!
  br label %75

75:                                               ; preds = %74
  br label %76

76:                                               ; preds = %75, %1
  %77 = load ptr, ptr %3, align 8
  call void @uuid_set_version(ptr noundef %77, i8 noundef zeroext 7)
  %78 = load ptr, ptr %3, align 8
  call void @llvm.lifetime.end.p0(i64 4, ptr %5) #10
  call void @llvm.lifetime.end.p0(i64 8, ptr %4) #10
  call void @llvm.lifetime.end.p0(i64 8, ptr %3) #10
  ret ptr %78
}