; Function Attrs: nounwind uwtable
define internal fastcc noundef ptr @generate_uuidv7(i64 noundef %0) unnamed_addr #0 {
  %2 = tail call ptr @palloc(i64 noundef 16) #15
  %3 = sdiv i64 %0, 1000000
  %4 = lshr i64 %3, 40
  %5 = trunc i64 %4 to i8
  store i8 %5, ptr %2, align 1
  %6 = lshr i64 %3, 32
  %7 = trunc i64 %6 to i8
  %8 = getelementptr inbounds nuw i8, ptr %2, i64 1
  store i8 %7, ptr %8, align 1
  %9 = lshr i64 %3, 24
  %10 = trunc i64 %9 to i8
  %11 = getelementptr inbounds nuw i8, ptr %2, i64 2
  store i8 %10, ptr %11, align 1
  %12 = lshr i64 %3, 16
  %13 = trunc i64 %12 to i8
  %14 = getelementptr inbounds nuw i8, ptr %2, i64 3
  store i8 %13, ptr %14, align 1
  %15 = lshr i64 %3, 8
  %16 = trunc i64 %15 to i8
  %17 = getelementptr inbounds nuw i8, ptr %2, i64 4
  store i8 %16, ptr %17, align 1
  %18 = trunc i64 %3 to i8
  %19 = getelementptr inbounds nuw i8, ptr %2, i64 5
  store i8 %18, ptr %19, align 1
  %20 = srem i64 %0, 1000000
  %21 = shl nsw i64 %20, 12
  %22 = sdiv i64 %21, 1000000
  %23 = lshr i64 %22, 8
  %24 = trunc i64 %23 to i8
  %25 = getelementptr inbounds nuw i8, ptr %2, i64 6
  store i8 %24, ptr %25, align 1
  %26 = trunc i64 %22 to i8
  %27 = getelementptr inbounds nuw i8, ptr %2, i64 7
  store i8 %26, ptr %27, align 1
  %28 = getelementptr inbounds nuw i8, ptr %2, i64 8
  %29 = tail call zeroext i1 @pg_strong_random(ptr noundef nonnull %28, i64 noundef 8) #15
  br i1 %29, label %34, label %30

30:                                               ; preds = %1
  %31 = tail call zeroext i1 @errstart_cold(i32 noundef 21, ptr noundef null) #18
  tail call void @llvm.assume(i1 %31)
  %32 = tail call i32 @errcode(i32 noundef 2600) #15
  %33 = tail call i32 (ptr, ...) @errmsg(ptr noundef nonnull @.str) #15
  tail call void @errfinish(ptr noundef nonnull @.str.1, i32 noundef 560, ptr noundef nonnull @__func__.generate_uuidv7) #15
  unreachable

34:                                               ; preds = %1
  %35 = load i8, ptr %25, align 1
  %36 = and i8 %35, 15
  %37 = or disjoint i8 %36, 112
  store i8 %37, ptr %25, align 1
  %38 = load i8, ptr %28, align 1
  %39 = and i8 %38, 63
  %40 = or disjoint i8 %39, -128
  store i8 %40, ptr %28, align 1
  ret ptr %2
}